Certificate:
    Data:
        Version: 3 (0x2)
        Serial Number: 7570075673653220244 (0x690e4fb79aed1394)
        Signature Algorithm: sha256WithRSAEncryption
        Issuer: C = BG, organizationIdentifier = NTRBG-201230426, O = BORICA AD, OU = B-Trust, CN = B-Trust Root Qualified CA
        Validity
            Not Before: Jun  1 13:44:50 2018 GMT
            Not After : May 31 13:44:50 2033 GMT
        Subject: C = BG, organizationIdentifier = NTRBG-201230426, O = BORICA AD, OU = B-Trust, CN = B-Trust Operational Qualified CA
        Subject Public Key Info:
            Public Key Algorithm: rsaEncryption
                RSA Public-Key: (4096 bit)
                Modulus:
                    00:ba:2d:65:ee:18:5d:b8:ff:7a:0f:5c:4d:b5:04:
                    22:6f:7a:08:df:e0:ea:9a:f4:9a:44:8c:43:37:06:
                    a0:52:7f:a1:be:da:83:b1:05:7d:73:21:de:9d:28:
                    69:8c:74:b2:ad:d2:77:77:11:75:26:85:96:42:61:
                    60:7b:6e:cf:a5:2a:03:a8:3f:da:22:23:4d:e8:4f:
                    4b:86:be:34:b2:20:91:4e:e3:7d:58:d9:d2:b0:19:
                    33:fd:09:61:e8:76:04:fc:20:c3:4c:22:4b:0a:6f:
                    88:74:ef:30:8a:6e:ec:31:c5:35:e5:ab:ba:87:04:
                    2a:f8:2a:e1:8a:99:ae:22:51:b4:f3:5a:a4:e1:63:
                    45:05:92:4d:e6:5c:d1:bb:72:9f:8a:6b:90:b1:39:
                    e1:2a:de:15:0f:fe:cf:7d:ec:a5:b8:2b:9e:12:3d:
                    9b:dd:06:1b:a9:0c:af:fb:f1:d0:4f:a2:51:89:15:
                    92:50:9d:06:b4:c1:70:d9:65:80:cf:9b:17:65:7a:
                    88:c7:1b:2e:09:e7:8d:4d:5b:88:7b:cf:a5:94:dd:
                    e9:c7:9d:24:cd:eb:1c:2f:4b:2c:b1:3c:0f:1a:bd:
                    e4:c9:8c:2b:db:cb:a0:e0:94:d1:2a:20:02:31:31:
                    e1:77:99:9d:2d:e1:df:1c:00:e2:a1:7a:14:22:de:
                    ec:3f:05:7c:d0:34:81:62:4e:e3:d8:76:1a:30:e1:
                    9c:0c:d3:1a:1c:9e:a7:ab:47:d6:9d:52:9e:2c:e8:
                    3e:af:99:d6:b1:5c:1c:e6:2b:39:77:c9:7f:91:29:
                    95:a6:74:96:cd:f6:1e:51:52:18:20:aa:1c:53:9c:
                    c7:e3:45:71:97:a5:b9:b2:54:b0:0d:1f:ee:d6:13:
                    d8:fb:9d:32:64:f4:42:ba:c5:07:f0:4e:0e:5e:3a:
                    db:95:19:96:c8:84:58:6d:18:2d:19:2e:8c:14:20:
                    4d:82:a3:75:24:bd:86:25:fd:65:57:1f:f2:df:f3:
                    78:48:9b:7b:51:42:9c:48:e6:ae:6f:06:fb:bf:5b:
                    a8:03:da:f1:d4:f7:cf:2e:c5:81:6c:4d:f9:89:18:
                    6e:a3:1a:21:d5:e6:b4:26:0b:7a:69:83:1d:e6:22:
                    8f:f5:1b:8e:b7:12:27:45:26:99:1e:35:3e:e9:ce:
                    f5:b5:fa:e0:98:76:12:c6:67:e9:32:94:a9:6a:89:
                    bb:fb:c6:a0:3a:3d:de:bb:e4:20:57:11:32:b0:f9:
                    15:ed:fa:1b:45:8a:70:4e:f2:b4:fe:7b:7a:46:18:
                    02:8b:5a:54:2a:69:e1:e7:02:ca:13:f0:57:e0:51:
                    05:1a:94:3d:bc:35:6a:cc:6f:8a:4a:e9:87:83:e5:
                    5a:7f:49
                Exponent: 38825 (0x97a9)
        X509v3 extensions:
            X509v3 Subject Key Identifier: 
                27:CF:08:43:04:F0:C5:83:37:67:81:17:4D:FC:05:E6:DB:65:8B:B0
            X509v3 Authority Key Identifier: 
                keyid:F2:84:EE:2E:35:FE:F0:FA:D8:50:50:B0:9C:48:89:EA:5A:2F:D9:AB

            X509v3 Issuer Alternative Name: 
                URI:http://www.b-trust.org
            X509v3 Basic Constraints: critical
                CA:TRUE, pathlen:0
            X509v3 Certificate Policies: 
                Policy: 1.3.6.1.4.1.15862.1.6.1
                  CPS: http://www.b-trust.org/documents/cps
                Policy: 1.3.6.1.4.1.15862.1.6.1.1
                Policy: 1.3.6.1.4.1.15862.1.6.1.2
                Policy: 1.3.6.1.4.1.15862.1.6.1.3

            X509v3 Key Usage: critical
                Certificate Sign, CRL Sign
            X509v3 CRL Distribution Points: 

                Full Name:
                  URI:http://crl.b-trust.org/repository/B-TrustRootQCA.crl

            Authority Information Access: 
                OCSP - URI:http://ocsp.b-trust.org
                CA Issuers - URI:http://ca.b-trust.org/repository/B-TrustRootQCAOCSP.cer

    Signature Algorithm: sha256WithRSAEncryption
         88:f3:83:19:ce:a0:59:d1:e3:44:e8:10:d9:cc:b4:2a:d6:51:
         39:00:e5:f1:ac:74:7d:33:49:1a:60:af:8f:bd:78:b8:1c:ee:
         4e:f0:44:0a:d2:d7:f3:16:51:98:8b:e9:77:a3:d9:ab:a3:5e:
         c6:5e:29:5e:14:b4:e1:22:dd:cf:b3:21:6a:43:7d:ef:47:75:
         db:f7:06:c6:47:58:a2:d4:c4:a7:1d:16:b9:7a:8f:0b:72:74:
         03:95:56:63:c2:cb:b0:9f:09:85:5a:0e:e3:1a:78:1d:a3:44:
         e1:a6:e7:0a:3f:ae:5d:44:45:2c:9b:28:c5:b1:0a:cb:58:aa:
         1c:cc:bb:96:8a:5e:8f:db:02:b8:e8:e9:ea:33:50:6b:e2:78:
         6f:89:84:c7:c4:6d:16:7e:15:4e:76:82:fb:5f:73:dd:54:1a:
         3c:26:96:7e:92:58:9c:ed:43:b0:74:ae:9d:94:ea:f7:95:14:
         56:78:ef:80:33:37:5b:1b:81:44:59:1c:e7:9d:50:e5:d8:78:
         03:e8:2b:1b:0e:b2:3d:6e:62:8c:e0:b5:79:3c:69:1b:a0:cc:
         80:92:f8:d4:6e:df:b4:65:f5:02:c5:e1:3a:ec:68:59:17:fd:
         af:6b:02:75:02:54:55:ef:c2:b5:9d:fb:56:39:b5:41:44:be:
         4e:64:c0:8c:b5:c8:9e:1f:ec:54:d1:42:df:1b:3b:c2:dd:ae:
         98:f4:18:7a:f4:de:4b:82:91:af:15:e0:72:ff:76:0a:55:bc:
         a9:91:97:a2:a9:ec:ac:db:f1:f4:04:ee:1d:23:30:ca:c4:c1:
         aa:b7:44:00:0c:6a:52:b3:eb:b7:69:db:e7:cc:a9:fb:60:1a:
         e3:80:87:87:35:c2:7e:91:4d:f4:9f:38:9f:02:61:20:e1:15:
         84:b0:5a:55:e9:6c:3f:92:29:88:27:d4:4c:3b:65:b8:d1:4d:
         67:ed:25:5b:0b:3b:ba:0c:2d:d1:8e:14:c0:d5:64:11:b9:be:
         4f:16:1e:de:d6:80:a0:e7:1f:dd:e6:4f:db:e0:5f:54:d3:3f:
         30:03:69:71:8e:e1:e6:e3:5d:3b:18:51:84:1e:e5:e8:c7:6f:
         30:92:0c:12:ad:d1:cc:41:fe:20:7e:2d:10:16:f9:eb:e1:fa:
         0e:4a:7d:de:4d:47:89:fe:9d:23:06:bd:be:57:88:b9:e0:e9:
         2f:74:77:68:6e:f2:bf:69:6a:db:11:55:52:50:7a:af:ec:c4:
         14:05:e6:18:0e:97:db:a4:78:e1:3c:16:3b:5b:4b:54:26:11:
         ef:a0:fb:f3:57:58:36:62:c2:bd:2f:ec:27:88:9d:1a:35:b6:
         4d:00:c0:38:e0:7a:99:9d
-----BEGIN CERTIFICATE-----
MIIHMzCCBRugAwIBAgIIaQ5Pt5rtE5QwDQYJKoZIhvcNAQELBQAwcTELMAkGA1UE
BhMCQkcxGDAWBgNVBGETD05UUkJHLTIwMTIzMDQyNjESMBAGA1UEChMJQk9SSUNB
IEFEMRAwDgYDVQQLEwdCLVRydXN0MSIwIAYDVQQDExlCLVRydXN0IFJvb3QgUXVh
bGlmaWVkIENBMB4XDTE4MDYwMTEzNDQ1MFoXDTMzMDUzMTEzNDQ1MFoweDELMAkG
A1UEBhMCQkcxGDAWBgNVBGETD05UUkJHLTIwMTIzMDQyNjESMBAGA1UEChMJQk9S
SUNBIEFEMRAwDgYDVQQLEwdCLVRydXN0MSkwJwYDVQQDEyBCLVRydXN0IE9wZXJh
dGlvbmFsIFF1YWxpZmllZCBDQTCCAiIwDQYJKoZIhvcNAQEBBQADggIPADCCAgoC
ggIBALotZe4YXbj/eg9cTbUEIm96CN/g6pr0mkSMQzcGoFJ/ob7ag7EFfXMh3p0o
aYx0sq3Sd3cRdSaFlkJhYHtuz6UqA6g/2iIjTehPS4a+NLIgkU7jfVjZ0rAZM/0J
Yeh2BPwgw0wiSwpviHTvMIpu7DHFNeWruocEKvgq4YqZriJRtPNapOFjRQWSTeZc
0btyn4prkLE54SreFQ/+z33spbgrnhI9m90GG6kMr/vx0E+iUYkVklCdBrTBcNll
gM+bF2V6iMcbLgnnjU1biHvPpZTd6cedJM3rHC9LLLE8Dxq95MmMK9vLoOCU0Sog
AjEx4XeZnS3h3xwA4qF6FCLe7D8FfNA0gWJO49h2GjDhnAzTGhyep6tH1p1Snizo
Pq+Z1rFcHOYrOXfJf5EplaZ0ls32HlFSGCCqHFOcx+NFcZelubJUsA0f7tYT2Pud
MmT0QrrFB/BODl4625UZlsiEWG0YLRkujBQgTYKjdSS9hiX9ZVcf8t/zeEibe1FC
nEjmrm8G+79bqAPa8dT3zy7FgWxN+YkYbqMaIdXmtCYLemmDHeYij/UbjrcSJ0Um
mR41PunO9bX64Jh2EsZn6TKUqWqJu/vGoDo93rvkIFcRMrD5Fe36G0WKcE7ytP57
ekYYAotaVCpp4ecCyhPwV+BRBRqUPbw1asxvikrph4PlWn9JAgMAl6mjggHGMIIB
wjAdBgNVHQ4EFgQUJ88IQwTwxYM3Z4EXTfwF5ttli7AwHwYDVR0jBBgwFoAU8oTu
LjX+8PrYUFCwnEiJ6lov2aswIQYDVR0SBBowGIYWaHR0cDovL3d3dy5iLXRydXN0
Lm9yZzASBgNVHRMBAf8ECDAGAQH/AgEAMHgGA1UdIARxMG8wQAYKKwYBBAH7dgEG
ATAyMDAGCCsGAQUFBwIBFiRodHRwOi8vd3d3LmItdHJ1c3Qub3JnL2RvY3VtZW50
cy9jcHMwDQYLKwYBBAH7dgEGAQEwDQYLKwYBBAH7dgEGAQIwDQYLKwYBBAH7dgEG
AQMwDgYDVR0PAQH/BAQDAgEGMEUGA1UdHwQ+MDwwOqA4oDaGNGh0dHA6Ly9jcmwu
Yi10cnVzdC5vcmcvcmVwb3NpdG9yeS9CLVRydXN0Um9vdFFDQS5jcmwweAYIKwYB
BQUHAQEEbDBqMCMGCCsGAQUFBzABhhdodHRwOi8vb2NzcC5iLXRydXN0Lm9yZzBD
BggrBgEFBQcwAoY3aHR0cDovL2NhLmItdHJ1c3Qub3JnL3JlcG9zaXRvcnkvQi1U
cnVzdFJvb3RRQ0FPQ1NQLmNlcjANBgkqhkiG9w0BAQsFAAOCAgEAiPODGc6gWdHj
ROgQ2cy0KtZROQDl8ax0fTNJGmCvj714uBzuTvBECtLX8xZRmIvpd6PZq6Nexl4p
XhS04SLdz7MhakN970d12/cGxkdYotTEpx0WuXqPC3J0A5VWY8LLsJ8JhVoO4xp4
HaNE4abnCj+uXURFLJsoxbEKy1iqHMy7lopej9sCuOjp6jNQa+J4b4mEx8RtFn4V
TnaC+19z3VQaPCaWfpJYnO1DsHSunZTq95UUVnjvgDM3WxuBRFkc551Q5dh4A+gr
Gw6yPW5ijOC1eTxpG6DMgJL41G7ftGX1AsXhOuxoWRf9r2sCdQJUVe/CtZ37Vjm1
QUS+TmTAjLXInh/sVNFC3xs7wt2umPQYevTeS4KRrxXgcv92ClW8qZGXoqnsrNvx
9ATuHSMwysTBqrdEAAxqUrPrt2nb58yp+2Aa44CHhzXCfpFN9J84nwJhIOEVhLBa
VelsP5IpiCfUTDtluNFNZ+0lWws7ugwt0Y4UwNVkEbm+TxYe3taAoOcf3eZP2+Bf
VNM/MANpcY7h5uNdOxhRhB7l6MdvMJIMEq3RzEH+IH4tEBb56+H6Dkp93k1Hif6d
Iwa9vleIueDpL3R3aG7yv2lq2xFVUlB6r+zEFAXmGA6X26R44TwWO1tLVCYR76D7
81dYNmLCvS/sJ4idGjW2TQDAOOB6mZ0=
-----END CERTIFICATE-----
