Certificate:
    Data:
        Version: 3 (0x2)
        Serial Number: 1 (0x1)
        Signature Algorithm: sha1WithRSAEncryption
        Issuer: C = BG, L = Sofia, O = BORICA - BANKSERVICE AD, OU = B-Trust, CN = B-Trust Root CA
        Validity
            Not Before: Aug 17 14:12:38 2010 GMT
            Not After : Aug 17 14:12:38 2030 GMT
        Subject: C = BG, L = Sofia, O = BORICA - BANKSERVICE AD, OU = B-Trust, CN = B-Trust Root CA
        Subject Public Key Info:
            Public Key Algorithm: rsaEncryption
                RSA Public-Key: (4096 bit)
                Modulus:
                    00:c8:3a:d8:4c:8e:a7:af:bf:51:dc:a9:bc:c3:0d:
                    5d:f7:61:80:aa:c4:e1:d0:3a:6d:e1:36:fa:56:60:
                    a0:de:c7:14:86:b8:6a:42:63:a4:da:0d:bb:86:60:
                    92:ee:60:d2:07:9e:bb:5e:87:70:83:a4:7d:9b:6c:
                    d9:0d:70:2e:d8:fb:f4:6c:8c:37:58:a1:9e:87:bb:
                    90:f6:2c:e5:62:21:ba:87:b0:db:c4:9f:a4:3c:e5:
                    b8:b6:40:5a:48:52:af:df:bc:07:87:ca:23:d4:36:
                    be:0b:7c:d3:74:68:e8:68:6b:87:44:b0:df:b1:73:
                    97:2e:52:23:34:04:f2:8f:48:0f:f9:c8:b7:28:57:
                    e1:5a:97:60:55:69:64:33:d7:1b:72:88:5b:c8:52:
                    21:31:26:1d:d7:84:fa:e7:ed:02:58:e3:cd:3f:69:
                    0a:a6:47:e5:e7:d2:bb:9d:f2:12:90:2a:95:03:db:
                    a8:a6:5f:d3:da:c0:b2:c8:71:77:10:7f:85:4b:48:
                    bc:1b:83:e5:54:aa:56:aa:a7:e2:d9:af:eb:bd:41:
                    27:9a:73:bb:3d:d8:d2:8c:04:0c:03:35:0e:5b:67:
                    4b:4e:03:0e:22:6b:d4:c5:f2:52:63:5e:79:d7:e1:
                    3b:2d:9b:57:7b:ee:40:9b:76:ff:01:cc:be:36:89:
                    3d:dd:0c:f2:19:4a:4b:bd:29:05:be:a9:2b:ec:37:
                    10:55:70:87:6b:54:c2:6c:44:7c:7d:34:0f:22:6d:
                    83:52:2b:ea:fc:4c:67:58:76:4e:06:77:4c:aa:77:
                    21:19:aa:72:fa:a2:f9:55:42:e8:48:e4:7e:4c:99:
                    e6:ea:cf:85:83:30:85:6f:21:e8:f8:55:28:22:da:
                    ad:1e:21:b4:cd:52:f1:0d:e5:32:57:7f:98:e0:70:
                    dd:cb:cb:c7:5e:34:39:36:4a:d2:1a:4c:54:8a:7c:
                    a9:18:28:9b:18:57:14:86:00:be:da:f3:18:eb:4a:
                    3c:67:44:d0:7f:0e:bd:95:cf:74:9e:a4:18:d9:34:
                    c6:cd:1b:89:b2:57:c8:93:6f:d5:b1:8e:35:c9:c4:
                    8f:f0:98:3e:d8:33:fb:11:5e:59:f6:00:75:10:2e:
                    1e:75:52:b3:ed:be:2f:99:c7:c7:3e:71:05:7e:4b:
                    a7:b1:aa:e4:67:1e:2c:9c:39:0c:fa:45:2a:82:97:
                    55:be:53:5d:e6:98:a7:3d:87:3c:6c:7c:bb:90:86:
                    61:0a:2c:dc:b9:8f:4d:e1:80:02:2a:f7:95:74:7a:
                    cf:97:20:70:a5:f3:6f:38:a5:cf:27:90:87:bd:a8:
                    31:df:17:fc:2d:3d:91:8c:47:fe:db:3b:ca:a0:89:
                    36:80:c3
                Exponent: 41851 (0xa37b)
        X509v3 extensions:
            X509v3 Subject Key Identifier: 
                9B:A6:48:3A:23:1F:3A:A9:A8:88:28:57:64:ED:04:96:1C:30:C8:9D
            X509v3 Authority Key Identifier: 
                keyid:9B:A6:48:3A:23:1F:3A:A9:A8:88:28:57:64:ED:04:96:1C:30:C8:9D
                DirName:/C=BG/L=Sofia/O=BORICA - BANKSERVICE AD/OU=B-Trust/CN=B-Trust Root CA
                serial:01

            X509v3 Issuer Alternative Name: 
                URI:http://www.b-trust.org
            X509v3 Basic Constraints: critical
                CA:TRUE, pathlen:4
            X509v3 Certificate Policies: 
                Policy: X509v3 Any Policy
                  CPS: http://www.b-trust.org

            X509v3 Key Usage: critical
                Certificate Sign, CRL Sign
            X509v3 CRL Distribution Points: 

                Full Name:
                  URI:http://www.b-trust.org/repository/ca5root/crl/b-trust_ca5_root.crl

            Authority Information Access: 
                OCSP - URI:http://ocsp.b-trust.org

    Signature Algorithm: sha1WithRSAEncryption
         86:a8:c3:43:f9:fe:1a:77:2a:34:17:96:59:0a:c7:99:9c:53:
         b2:7e:b9:7e:b4:29:6e:dc:94:92:fc:ba:c1:00:54:22:55:0b:
         64:40:29:0f:91:55:e4:45:34:2f:cc:51:2c:9f:d9:e7:42:55:
         37:c7:b2:c4:0b:d0:8c:37:ec:2f:3b:d2:69:72:81:4c:70:65:
         1d:0e:71:96:5b:65:23:7d:8a:b7:6a:f6:9b:21:75:18:c3:f9:
         85:47:fb:19:b1:01:2a:a4:20:1b:29:9e:5e:e5:12:80:e9:7a:
         b4:37:41:c5:e7:5f:8d:7f:97:e4:25:35:8d:7d:36:5a:71:86:
         c2:9b:eb:47:f2:95:3f:e1:5d:aa:f8:83:2f:4d:6f:61:cc:91:
         f6:d3:77:79:c2:4c:72:a4:ac:2a:48:89:1c:08:6b:a7:22:f6:
         68:c7:a5:8a:70:7a:35:05:e7:1f:01:8c:0f:bf:65:7d:0b:20:
         4f:7a:13:59:68:bc:a5:21:93:eb:5e:12:eb:2c:66:e6:39:80:
         0d:b8:d0:ae:87:be:ab:1f:e2:a3:66:b9:7c:64:67:fd:6b:b2:
         73:c0:6c:6e:2c:b3:38:c8:e5:9b:14:1d:80:a7:64:a6:22:56:
         56:41:ee:37:6c:2b:46:69:99:ad:2e:0c:d4:de:08:f8:ec:66:
         9e:4c:3c:a8:e9:fb:f8:ad:0e:4c:9a:57:2d:4a:4a:4c:55:dd:
         bf:05:39:b8:1d:b7:db:38:10:5b:1f:a9:46:de:aa:a1:fd:3d:
         a7:b4:92:95:96:ad:87:f2:69:4d:a4:de:be:ed:8f:6c:30:2e:
         d2:90:7d:2f:2a:53:cb:52:7d:77:86:2f:4b:2d:1f:59:aa:56:
         b8:de:19:ca:ce:60:b9:39:a4:d5:f7:1d:88:2e:9c:b8:af:7e:
         43:c5:82:c6:ab:26:a6:28:73:24:f1:0c:1e:af:f5:05:14:6b:
         34:3a:b8:d6:85:42:4e:e6:fd:e4:cf:17:c6:30:4c:fa:f0:53:
         3a:d3:7a:69:25:b7:1b:f7:ae:0e:45:35:16:88:8d:14:82:0c:
         6e:9b:61:0f:d1:15:cd:e0:3d:52:b5:f9:eb:45:d5:76:80:c7:
         de:45:ca:34:55:de:c3:68:7c:2d:e9:74:3c:c0:60:8a:cb:a5:
         31:ff:5e:80:9c:df:5e:e7:8e:67:c6:b8:08:0a:b8:3a:98:70:
         0b:3e:4d:d2:a0:bc:32:15:fe:c0:19:ef:a6:ee:a1:51:1e:9b:
         d6:f1:17:3a:58:96:5f:92:66:7c:b6:e1:d6:e3:78:9c:b6:e7:
         4f:36:5e:6b:f4:73:79:87:e6:9f:84:ed:7a:0a:34:82:c5:d3:
         b7:e1:0d:02:0a:a7:dd:b2
-----BEGIN CERTIFICATE-----
MIIHGDCCBQCgAwIBAgIBATANBgkqhkiG9w0BAQUFADBrMQswCQYDVQQGEwJCRzEO
MAwGA1UEBxMFU29maWExIDAeBgNVBAoTF0JPUklDQSAtIEJBTktTRVJWSUNFIEFE
MRAwDgYDVQQLEwdCLVRydXN0MRgwFgYDVQQDEw9CLVRydXN0IFJvb3QgQ0EwHhcN
MTAwODE3MTQxMjM4WhcNMzAwODE3MTQxMjM4WjBrMQswCQYDVQQGEwJCRzEOMAwG
A1UEBxMFU29maWExIDAeBgNVBAoTF0JPUklDQSAtIEJBTktTRVJWSUNFIEFEMRAw
DgYDVQQLEwdCLVRydXN0MRgwFgYDVQQDEw9CLVRydXN0IFJvb3QgQ0EwggIiMA0G
CSqGSIb3DQEBAQUAA4ICDwAwggIKAoICAQDIOthMjqevv1HcqbzDDV33YYCqxOHQ
Om3hNvpWYKDexxSGuGpCY6TaDbuGYJLuYNIHnrteh3CDpH2bbNkNcC7Y+/RsjDdY
oZ6Hu5D2LOViIbqHsNvEn6Q85bi2QFpIUq/fvAeHyiPUNr4LfNN0aOhoa4dEsN+x
c5cuUiM0BPKPSA/5yLcoV+Fal2BVaWQz1xtyiFvIUiExJh3XhPrn7QJY480/aQqm
R+Xn0rud8hKQKpUD26imX9PawLLIcXcQf4VLSLwbg+VUqlaqp+LZr+u9QSeac7s9
2NKMBAwDNQ5bZ0tOAw4ia9TF8lJjXnnX4Tstm1d77kCbdv8BzL42iT3dDPIZSku9
KQW+qSvsNxBVcIdrVMJsRHx9NA8ibYNSK+r8TGdYdk4Gd0yqdyEZqnL6ovlVQuhI
5H5Mmebqz4WDMIVvIej4VSgi2q0eIbTNUvEN5TJXf5jgcN3Ly8deNDk2StIaTFSK
fKkYKJsYVxSGAL7a8xjrSjxnRNB/Dr2Vz3SepBjZNMbNG4myV8iTb9WxjjXJxI/w
mD7YM/sRXln2AHUQLh51UrPtvi+Zx8c+cQV+S6exquRnHiycOQz6RSqCl1W+U13m
mKc9hzxsfLuQhmEKLNy5j03hgAIq95V0es+XIHCl8284pc8nkIe9qDHfF/wtPZGM
R/7bO8qgiTaAwwIDAKN7o4IBxTCCAcEwHQYDVR0OBBYEFJumSDojHzqpqIgoV2Tt
BJYcMMidMIGVBgNVHSMEgY0wgYqAFJumSDojHzqpqIgoV2TtBJYcMMidoW+kbTBr
MQswCQYDVQQGEwJCRzEOMAwGA1UEBxMFU29maWExIDAeBgNVBAoTF0JPUklDQSAt
IEJBTktTRVJWSUNFIEFEMRAwDgYDVQQLEwdCLVRydXN0MRgwFgYDVQQDEw9CLVRy
dXN0IFJvb3QgQ0GCAQEwIQYDVR0SBBowGIYWaHR0cDovL3d3dy5iLXRydXN0Lm9y
ZzASBgNVHRMBAf8ECDAGAQH/AgEEMDcGA1UdIAQwMC4wLAYEVR0gADAkMCIGCCsG
AQUFBwIBFhZodHRwOi8vd3d3LmItdHJ1c3Qub3JnMA4GA1UdDwEB/wQEAwIBBjBT
BgNVHR8ETDBKMEigRqBEhkJodHRwOi8vd3d3LmItdHJ1c3Qub3JnL3JlcG9zaXRv
cnkvY2E1cm9vdC9jcmwvYi10cnVzdF9jYTVfcm9vdC5jcmwwMwYIKwYBBQUHAQEE
JzAlMCMGCCsGAQUFBzABhhdodHRwOi8vb2NzcC5iLXRydXN0Lm9yZzANBgkqhkiG
9w0BAQUFAAOCAgEAhqjDQ/n+GncqNBeWWQrHmZxTsn65frQpbtyUkvy6wQBUIlUL
ZEApD5FV5EU0L8xRLJ/Z50JVN8eyxAvQjDfsLzvSaXKBTHBlHQ5xlltlI32Kt2r2
myF1GMP5hUf7GbEBKqQgGymeXuUSgOl6tDdBxedfjX+X5CU1jX02WnGGwpvrR/KV
P+FdqviDL01vYcyR9tN3ecJMcqSsKkiJHAhrpyL2aMelinB6NQXnHwGMD79lfQsg
T3oTWWi8pSGT614S6yxm5jmADbjQroe+qx/io2a5fGRn/Wuyc8BsbiyzOMjlmxQd
gKdkpiJWVkHuN2wrRmmZrS4M1N4I+Oxmnkw8qOn7+K0OTJpXLUpKTFXdvwU5uB23
2zgQWx+pRt6qof09p7SSlZath/JpTaTevu2PbDAu0pB9LypTy1J9d4YvSy0fWapW
uN4Zys5guTmk1fcdiC6cuK9+Q8WCxqsmpihzJPEMHq/1BRRrNDq41oVCTub95M8X
xjBM+vBTOtN6aSW3G/euDkU1FoiNFIIMbpthD9EVzeA9UrX560XVdoDH3kXKNFXe
w2h8Lel0PMBgisulMf9egJzfXueOZ8a4CAq4OphwCz5N0qC8MhX+wBnvpu6hUR6b
1vEXOliWX5JmfLbh1uN4nLbnTzZea/RzeYfmn4Ttego0gsXTt+ENAgqn3bI=
-----END CERTIFICATE-----
